target datalayout = "e-m:e-p270:32:32-p271:32:32-p272:64:64-i64:64-i128:128-f80:128-n8:16:32:64-S128"
target triple = "x86_64-pc-linux-gnu"

%"class.llvm::DWARFDie" = type { ptr, ptr }

; Function Attrs: mustprogress nounwind uwtable
define linkonce_odr hidden noundef zeroext i1 @_ZNK4llvm8DWARFDie7isValidEv(ptr noundef nonnull align 8 dereferenceable(16) %0) #0 comdat align 2 {
  %2 = alloca ptr, align 8
  store ptr %0, ptr %2, align 8
  %3 = load ptr, ptr %2, align 8
  %4 = getelementptr inbounds nuw %"class.llvm::DWARFDie", ptr %3, i32 0, i32 0
  %5 = load ptr, ptr %4, align 8
  %6 = icmp ne ptr %5, null
  br i1 %6, label %7, label %11

7:                                                ; preds = %1
  %8 = getelementptr inbounds nuw %"class.llvm::DWARFDie", ptr %3, i32 0, i32 1
  %9 = load ptr, ptr %8, align 8
  %10 = icmp ne ptr %9, null
  br label %11

11:                                               ; preds = %7, %1
  %12 = phi i1 [ false, %1 ], [ %10, %7 ]
  ret i1 %12
}

; Function Attrs: mustprogress nounwind uwtable
define dso_local noundef ptr @_ZNK4llvm8DWARFDie7getNameENS_10DINameKindE(ptr noundef nonnull align 8 dereferenceable(16) %0, i32 noundef %1) #0 align 2 {
  %3 = alloca ptr, align 8
  %4 = alloca ptr, align 8
  %5 = alloca i32, align 4
  %6 = alloca ptr, align 8
  store ptr %0, ptr %4, align 8
  store i32 %1, ptr %5, align 4
  %7 = load ptr, ptr %4, align 8
  %8 = call noundef zeroext i1 @_ZNK4llvm8DWARFDie7isValidEv(ptr noundef nonnull align 8 dereferenceable(16) %7)
  br i1 %8, label %9, label %12

9:                                                ; preds = %2
  %10 = load i32, ptr %5, align 4
  %11 = icmp eq i32 %10, 0
  br i1 %11, label %12, label %13

12:                                               ; preds = %9, %2
  store ptr null, ptr %3, align 8
  br label %25

13:                                               ; preds = %9
  %14 = load i32, ptr %5, align 4
  %15 = icmp eq i32 %14, 2
  br i1 %15, label %16, label %23

16:                                               ; preds = %13
  %17 = call noundef ptr @_ZNK4llvm8DWARFDie14getLinkageNameEv(ptr noundef nonnull align 8 dereferenceable(16) %7)
  store ptr %17, ptr %6, align 8
  %18 = load ptr, ptr %6, align 8
  %19 = icmp ne ptr %18, null
  br i1 %19, label %20, label %22

20:                                               ; preds = %16
  %21 = load ptr, ptr %6, align 8
  store ptr %21, ptr %3, align 8
  br label %25

22:                                               ; preds = %16
  br label %23

23:                                               ; preds = %22, %13
  %24 = call noundef ptr @_ZNK4llvm8DWARFDie12getShortNameEv(ptr noundef nonnull align 8 dereferenceable(16) %7)
  store ptr %24, ptr %3, align 8
  br label %25

25:                                               ; preds = %23, %20, %12
  %26 = load ptr, ptr %3, align 8
  ret ptr %26
}