; Function Attrs: mustprogress nounwind uwtable
define dso_local noundef ptr @_ZNK4llvm8DWARFDie7getNameENS_10DINameKindE(ptr noundef nonnull align 8 dereferenceable(16) %0, i32 noundef %1) local_unnamed_addr #0 align 2 {
  %3 = load ptr, ptr %0, align 8
  %.not.i = icmp ne ptr %3, null
  %4 = getelementptr inbounds nuw i8, ptr %0, i64 8
  %5 = load ptr, ptr %4, align 8
  %6 = icmp ne ptr %5, null
  %7 = select i1 %.not.i, i1 %6, i1 false
  %8 = icmp ne i32 %1, 0
  %or.cond.not = and i1 %8, %7
  br i1 %or.cond.not, label %9, label %15

9:                                                ; preds = %2
  %10 = icmp eq i32 %1, 2
  br i1 %10, label %11, label %13

11:                                               ; preds = %9
  %12 = tail call noundef ptr @_ZNK4llvm8DWARFDie14getLinkageNameEv(ptr noundef nonnull align 8 dereferenceable(16) %0)
  %.not = icmp eq ptr %12, null
  br i1 %.not, label %13, label %15

13:                                               ; preds = %11, %9
  %14 = tail call noundef ptr @_ZNK4llvm8DWARFDie12getShortNameEv(ptr noundef nonnull align 8 dereferenceable(16) %0)
  br label %15

15:                                               ; preds = %11, %2, %13
  %.0 = phi ptr [ %14, %13 ], [ null, %2 ], [ %12, %11 ]
  ret ptr %.0
}